target datalayout = "e-m:e-p270:32:32-p271:32:32-p272:64:64-i64:64-i128:128-f80:128-n8:16:32:64-S128"
target triple = "x86_64-pc-linux-gnu"

%"struct.ofbx::DataView" = type <{ ptr, ptr, i8, [7 x i8] }>

; Function Attrs: mustprogress nounwind uwtable
define noundef zeroext i1 @_ZNK4ofbx8DataVieweqEPKc(ptr noundef nonnull align 8 dereferenceable(17) %0, ptr noundef %1) #0 align 2 {
  %3 = alloca i1, align 1
  %4 = alloca ptr, align 8
  %5 = alloca ptr, align 8
  %6 = alloca ptr, align 8
  %7 = alloca ptr, align 8
  store ptr %0, ptr %4, align 8
  store ptr %1, ptr %5, align 8
  %8 = load ptr, ptr %4, align 8
  %9 = load ptr, ptr %5, align 8
  store ptr %9, ptr %6, align 8
  %10 = getelementptr inbounds %"struct.ofbx::DataView", ptr %8, i32 0, i32 0
  %11 = load ptr, ptr %10, align 8
  store ptr %11, ptr %7, align 8
  br label %12

12:                                               ; preds = %32, %2
  %13 = load ptr, ptr %6, align 8
  %14 = load i8, ptr %13, align 1
  %15 = icmp ne i8 %14, 0
  br i1 %15, label %16, label %21

16:                                               ; preds = %12
  %17 = load ptr, ptr %7, align 8
  %18 = getelementptr inbounds %"struct.ofbx::DataView", ptr %8, i32 0, i32 1
  %19 = load ptr, ptr %18, align 8
  %20 = icmp ne ptr %17, %19
  br label %21

21:                                               ; preds = %16, %12
  %22 = phi i1 [ false, %12 ], [ %20, %16 ]
  br i1 %22, label %23, label %37

23:                                               ; preds = %21
  %24 = load ptr, ptr %6, align 8
  %25 = load i8, ptr %24, align 1
  %26 = sext i8 %25 to i32
  %27 = load ptr, ptr %7, align 8
  %28 = load i8, ptr %27, align 1
  %29 = sext i8 %28 to i32
  %30 = icmp ne i32 %26, %29
  br i1 %30, label %31, label %32

31:                                               ; preds = %23
  store i1 false, ptr %3, align 1
  br label %49

32:                                               ; preds = %23
  %33 = load ptr, ptr %6, align 8
  %34 = getelementptr inbounds i8, ptr %33, i32 1
  store ptr %34, ptr %6, align 8
  %35 = load ptr, ptr %7, align 8
  %36 = getelementptr inbounds i8, ptr %35, i32 1
  store ptr %36, ptr %7, align 8
  br label %12, !llvm.loop !5

37:                                               ; preds = %21
  %38 = load ptr, ptr %7, align 8
  %39 = getelementptr inbounds %"struct.ofbx::DataView", ptr %8, i32 0, i32 1
  %40 = load ptr, ptr %39, align 8
  %41 = icmp eq ptr %38, %40
  br i1 %41, label %42, label %47

42:                                               ; preds = %37
  %43 = load ptr, ptr %6, align 8
  %44 = load i8, ptr %43, align 1
  %45 = sext i8 %44 to i32
  %46 = icmp eq i32 %45, 0
  br label %47

47:                                               ; preds = %42, %37
  %48 = phi i1 [ false, %37 ], [ %46, %42 ]
  store i1 %48, ptr %3, align 1
  br label %49

49:                                               ; preds = %47, %31
  %50 = load i1, ptr %3, align 1
  ret i1 %50
}