; Function Attrs: mustprogress nofree norecurse nosync nounwind willreturn memory(read, inaccessiblemem: none) uwtable
define noundef zeroext i1 @_ZNK4ofbx8DataVieweqEPKc(ptr nocapture noundef nonnull readonly align 8 dereferenceable(17) %0, ptr nocapture noundef readonly %1) local_unnamed_addr #4 align 2 {
  %3 = load ptr, ptr %0, align 8
  %4 = getelementptr inbounds i8, ptr %0, i64 8
  %5 = load ptr, ptr %4, align 8
  %6 = load i8, ptr %1, align 1
  %.not19 = icmp eq i8 %6, 0
  %.not1420 = icmp eq ptr %3, %5
  %or.cond21 = select i1 %.not19, i1 true, i1 %.not1420
  br i1 %or.cond21, label %.critedge, label %.lr.ph

.lr.ph:                                           ; preds = %2, %9
  %7 = phi i8 [ %12, %9 ], [ %6, %2 ]
  %.023 = phi ptr [ %11, %9 ], [ %3, %2 ]
  %.01122 = phi ptr [ %10, %9 ], [ %1, %2 ]
  %8 = load i8, ptr %.023, align 1
  %.not15 = icmp eq i8 %7, %8
  br i1 %.not15, label %9, label %.loopexit

9:                                                ; preds = %.lr.ph
  %10 = getelementptr inbounds i8, ptr %.01122, i64 1
  %11 = getelementptr inbounds i8, ptr %.023, i64 1
  %12 = load i8, ptr %10, align 1
  %.not = icmp eq i8 %12, 0
  %.not14 = icmp eq ptr %11, %5
  %or.cond = select i1 %.not, i1 true, i1 %.not14
  br i1 %or.cond, label %.critedge, label %.lr.ph, !llvm.loop !5

.critedge:                                        ; preds = %9, %2
  %.not.lcssa = phi i1 [ %.not19, %2 ], [ %.not, %9 ]
  %.not14.lcssa = phi i1 [ %.not1420, %2 ], [ %.not14, %9 ]
  %spec.select = and i1 %.not.lcssa, %.not14.lcssa
  br label %.loopexit

.loopexit:                                        ; preds = %.lr.ph, %.critedge
  %.012 = phi i1 [ %spec.select, %.critedge ], [ false, %.lr.ph ]
  ret i1 %.012
}